; ModuleID = 'source-C-CXX/12/365.c'
source_filename = "source-C-CXX/12/365.c"
target datalayout = "e-m:e-p270:32:32-p271:32:32-p272:64:64-i64:64-f80:128-n8:16:32:64-S128"
target triple = "x86_64-pc-linux-gnu"

@.str = private unnamed_addr constant [3 x i8] c"%u\00", align 1
@.str.1 = private unnamed_addr constant [3 x i8] c"%d\00", align 1
@.str.2 = private unnamed_addr constant [4 x i8] c" %d\00", align 1

; Function Attrs: nofree nounwind sspstrong uwtable
define dso_local void @main() local_unnamed_addr #0 {
  %1 = alloca i32, align 4
  %2 = alloca [20000 x i32], align 16
  %3 = bitcast i32* %1 to i8*
  call void @llvm.lifetime.start.p0i8(i64 4, i8* nonnull %3) #4
  %4 = bitcast [20000 x i32]* %2 to i8*
  call void @llvm.lifetime.start.p0i8(i64 80000, i8* nonnull %4) #4
  %5 = call i32 (i8*, ...) @__isoc99_scanf(i8* getelementptr inbounds ([3 x i8], [3 x i8]* @.str, i64 0, i64 0), i32* nonnull %1)
  br label %6

6:                                                ; preds = %0, %6
  %7 = phi i64 [ 0, %0 ], [ %10, %6 ]
  %8 = getelementptr inbounds [20000 x i32], [20000 x i32]* %2, i64 0, i64 %7
  %9 = call i32 (i8*, ...) @__isoc99_scanf(i8* getelementptr inbounds ([3 x i8], [3 x i8]* @.str.1, i64 0, i64 0), i32* nonnull %8)
  %10 = add nuw nsw i64 %7, 1
  %11 = load i32, i32* %1, align 4, !tbaa !5
  %12 = add i32 %11, -1
  %13 = zext i32 %12 to i64
  %14 = icmp ult i64 %7, %13
  br i1 %14, label %6, label %15, !llvm.loop !9

15:                                               ; preds = %6
  %16 = getelementptr inbounds [20000 x i32], [20000 x i32]* %2, i64 0, i64 0
  %17 = load i32, i32* %16, align 16, !tbaa !5
  %18 = call i32 (i8*, ...) @printf(i8* nonnull dereferenceable(1) getelementptr inbounds ([3 x i8], [3 x i8]* @.str.1, i64 0, i64 0), i32 %17)
  %19 = load i32, i32* %1, align 4, !tbaa !5
  %20 = icmp ugt i32 %19, 1
  br i1 %20, label %21, label %42

21:                                               ; preds = %15, %37
  %22 = phi i32 [ %38, %37 ], [ %19, %15 ]
  %23 = phi i64 [ %39, %37 ], [ 1, %15 ]
  %24 = getelementptr inbounds [20000 x i32], [20000 x i32]* %2, i64 0, i64 %23
  %25 = load i32, i32* %24, align 4, !tbaa !5
  br label %28

26:                                               ; preds = %28
  %27 = icmp eq i64 %33, %23
  br i1 %27, label %34, label %28, !llvm.loop !11

28:                                               ; preds = %21, %26
  %29 = phi i64 [ 0, %21 ], [ %33, %26 ]
  %30 = getelementptr inbounds [20000 x i32], [20000 x i32]* %2, i64 0, i64 %29
  %31 = load i32, i32* %30, align 4, !tbaa !5
  %32 = icmp eq i32 %25, %31
  %33 = add nuw nsw i64 %29, 1
  br i1 %32, label %37, label %26

34:                                               ; preds = %26
  %35 = call i32 (i8*, ...) @printf(i8* nonnull dereferenceable(1) getelementptr inbounds ([4 x i8], [4 x i8]* @.str.2, i64 0, i64 0), i32 %25)
  %36 = load i32, i32* %1, align 4, !tbaa !5
  br label %37

37:                                               ; preds = %28, %34
  %38 = phi i32 [ %36, %34 ], [ %22, %28 ]
  %39 = add nuw nsw i64 %23, 1
  %40 = zext i32 %38 to i64
  %41 = icmp ult i64 %39, %40
  br i1 %41, label %21, label %42, !llvm.loop !12

42:                                               ; preds = %37, %15
  %43 = call i32 @putchar(i32 10)
  call void @llvm.lifetime.end.p0i8(i64 80000, i8* nonnull %4) #4
  call void @llvm.lifetime.end.p0i8(i64 4, i8* nonnull %3) #4
  ret void
}

; Function Attrs: argmemonly mustprogress nofree nosync nounwind willreturn
declare void @llvm.lifetime.start.p0i8(i64 immarg, i8* nocapture) #1

; Function Attrs: nofree nounwind
declare noundef i32 @__isoc99_scanf(i8* nocapture noundef readonly, ...) local_unnamed_addr #2

; Function Attrs: nofree nounwind
declare noundef i32 @printf(i8* nocapture noundef readonly, ...) local_unnamed_addr #2

; Function Attrs: argmemonly mustprogress nofree nosync nounwind willreturn
declare void @llvm.lifetime.end.p0i8(i64 immarg, i8* nocapture) #1

; Function Attrs: nofree nounwind
declare noundef i32 @putchar(i32 noundef) local_unnamed_addr #3


!llvm.module.flags = !{!0, !1, !2, !3}
!llvm.ident = !{!4}

!0 = !{i32 1, !"wchar_size", i32 4}
!1 = !{i32 7, !"PIC Level", i32 2}
!2 = !{i32 7, !"PIE Level", i32 2}
!3 = !{i32 7, !"uwtable", i32 1}
!4 = !{!"clang version 13.0.0"}
!5 = !{!6, !6, i64 0}
!6 = !{!"int", !7, i64 0}
!7 = !{!"omnipotent char", !8, i64 0}
!8 = !{!"Simple C/C++ TBAA"}
!9 = distinct !{!9, !10}
!10 = !{!"llvm.loop.mustprogress"}
!11 = distinct !{!11, !10}
!12 = distinct !{!12, !10}
